; Function Attrs: mustprogress uwtable
define internal void @_ZN11opencv_testL55gtest_Size_MatType_SuperResolution_BTVL1_EvalGenerator_Ev(ptr dead_on_unwind noalias writable sret(%"class.testing::internal::ParamGenerator") align 8 %0) #4 {
  %2 = alloca %"class.testing::internal::CartesianProductHolder2", align 8
  call void @llvm.lifetime.start.p0(i64 24, ptr nonnull %2) #31
  %.sroa.01.0.copyload = load i64, ptr @_ZN4perfL9szSmall64E, align 8
  %.sroa.0.0.copyload = load i64, ptr @_ZN4perfL10szSmall128E, align 8
  store i64 %.sroa.01.0.copyload, ptr %2, align 8, !alias.scope !70
  %3 = getelementptr inbounds nuw i8, ptr %2, i64 8
  store i64 %.sroa.0.0.copyload, ptr %3, align 8, !alias.scope !70
  %4 = getelementptr inbounds nuw i8, ptr %2, i64 16
  store i32 0, ptr %4, align 8, !tbaa !73, !alias.scope !70
  %5 = getelementptr inbounds nuw i8, ptr %2, i64 20
  store i32 16, ptr %5, align 4, !tbaa !73, !alias.scope !70
  call void @_ZNK7testing8internal23CartesianProductHolder2INS0_11ValueArray2IN2cv5Size_IiEES5_EENS2_IN4perf7MatTypeES8_EEEcvNS0_14ParamGeneratorISt5tupleIJT_T0_EEEEIS5_S8_EEv(ptr dead_on_unwind writable sret(%"class.testing::internal::ParamGenerator") align 8 %0, ptr noundef nonnull align 4 dereferenceable(24) %2)
  call void @llvm.lifetime.end.p0(i64 24, ptr nonnull %2) #31
  ret void
}